target datalayout = "e-m:e-p270:32:32-p271:32:32-p272:64:64-i64:64-i128:128-f80:128-n8:16:32:64-S128"
target triple = "x86_64-unknown-linux-gnu"

%"class.rocksdb::InternalKey" = type { %"class.std::__cxx11::basic_string" }
%"class.std::__cxx11::basic_string" = type { %"struct.std::__cxx11::basic_string<char>::_Alloc_hider", i64, %union.anon }
%"struct.std::__cxx11::basic_string<char>::_Alloc_hider" = type { ptr }
%union.anon = type { i64, [8 x i8] }
%"struct.rocksdb::FragmentedRangeTombstoneList" = type { %"class.std::vector", %"class.std::vector.2", %"class.std::vector.7", %"struct.std::once_flag", %"class.std::set", %"class.std::__cxx11::list", %"class.rocksdb::PinnedIteratorsManager", i64, i64 }
%"class.std::vector" = type { %"struct.std::_Vector_base" }
%"struct.std::_Vector_base" = type { %"struct.std::_Vector_base<rocksdb::FragmentedRangeTombstoneList::RangeTombstoneStack, std::allocator<rocksdb::FragmentedRangeTombstoneList::RangeTombstoneStack>>::_Vector_impl" }
%"struct.std::_Vector_base<rocksdb::FragmentedRangeTombstoneList::RangeTombstoneStack, std::allocator<rocksdb::FragmentedRangeTombstoneList::RangeTombstoneStack>>::_Vector_impl" = type { %"struct.std::_Vector_base<rocksdb::FragmentedRangeTombstoneList::RangeTombstoneStack, std::allocator<rocksdb::FragmentedRangeTombstoneList::RangeTombstoneStack>>::_Vector_impl_data" }
%"struct.std::_Vector_base<rocksdb::FragmentedRangeTombstoneList::RangeTombstoneStack, std::allocator<rocksdb::FragmentedRangeTombstoneList::RangeTombstoneStack>>::_Vector_impl_data" = type { ptr, ptr, ptr }
%"class.std::vector.2" = type { %"struct.std::_Vector_base.3" }
%"struct.std::_Vector_base.3" = type { %"struct.std::_Vector_base<unsigned long, std::allocator<unsigned long>>::_Vector_impl" }
%"struct.std::_Vector_base<unsigned long, std::allocator<unsigned long>>::_Vector_impl" = type { %"struct.std::_Vector_base<unsigned long, std::allocator<unsigned long>>::_Vector_impl_data" }
%"struct.std::_Vector_base<unsigned long, std::allocator<unsigned long>>::_Vector_impl_data" = type { ptr, ptr, ptr }
%"class.std::vector.7" = type { %"struct.std::_Vector_base.8" }
%"struct.std::_Vector_base.8" = type { %"struct.std::_Vector_base<rocksdb::Slice, std::allocator<rocksdb::Slice>>::_Vector_impl" }
%"struct.std::_Vector_base<rocksdb::Slice, std::allocator<rocksdb::Slice>>::_Vector_impl" = type { %"struct.std::_Vector_base<rocksdb::Slice, std::allocator<rocksdb::Slice>>::_Vector_impl_data" }
%"struct.std::_Vector_base<rocksdb::Slice, std::allocator<rocksdb::Slice>>::_Vector_impl_data" = type { ptr, ptr, ptr }
%"struct.std::once_flag" = type { i32 }
%"class.std::set" = type { %"class.std::_Rb_tree" }
%"class.std::_Rb_tree" = type { %"struct.std::_Rb_tree<unsigned long, unsigned long, std::_Identity<unsigned long>, std::less<unsigned long>>::_Rb_tree_impl" }
%"struct.std::_Rb_tree<unsigned long, unsigned long, std::_Identity<unsigned long>, std::less<unsigned long>>::_Rb_tree_impl" = type { %"struct.std::_Rb_tree_key_compare", %"struct.std::_Rb_tree_header" }
%"struct.std::_Rb_tree_key_compare" = type { %"struct.std::less" }
%"struct.std::less" = type { i8 }
%"struct.std::_Rb_tree_header" = type { %"struct.std::_Rb_tree_node_base", i64 }
%"struct.std::_Rb_tree_node_base" = type { i32, ptr, ptr, ptr }
%"class.std::__cxx11::list" = type { %"class.std::__cxx11::_List_base" }
%"class.std::__cxx11::_List_base" = type { %"struct.std::__cxx11::_List_base<std::__cxx11::basic_string<char>, std::allocator<std::__cxx11::basic_string<char>>>::_List_impl" }
%"struct.std::__cxx11::_List_base<std::__cxx11::basic_string<char>, std::allocator<std::__cxx11::basic_string<char>>>::_List_impl" = type { %"struct.std::__detail::_List_node_header" }
%"struct.std::__detail::_List_node_header" = type { %"struct.std::__detail::_List_node_base", i64 }
%"struct.std::__detail::_List_node_base" = type { ptr, ptr }
%"class.rocksdb::PinnedIteratorsManager" = type { %"class.rocksdb::Cleanable", i8, %"class.std::vector.18" }
%"class.rocksdb::Cleanable" = type { %"struct.rocksdb::Cleanable::Cleanup" }
%"struct.rocksdb::Cleanable::Cleanup" = type { ptr, ptr, ptr, ptr }
%"class.std::vector.18" = type { %"struct.std::_Vector_base.19" }
%"struct.std::_Vector_base.19" = type { %"struct.std::_Vector_base<std::pair<void *, void (*)(void *)>, std::allocator<std::pair<void *, void (*)(void *)>>>::_Vector_impl" }
%"struct.std::_Vector_base<std::pair<void *, void (*)(void *)>, std::allocator<std::pair<void *, void (*)(void *)>>>::_Vector_impl" = type { %"struct.std::_Vector_base<std::pair<void *, void (*)(void *)>, std::allocator<std::pair<void *, void (*)(void *)>>>::_Vector_impl_data" }
%"struct.std::_Vector_base<std::pair<void *, void (*)(void *)>, std::allocator<std::pair<void *, void (*)(void *)>>>::_Vector_impl_data" = type { ptr, ptr, ptr }
%"class.__gnu_cxx::__normal_iterator.58" = type { ptr }
%"class.rocksdb::FragmentedRangeTombstoneIterator" = type { %"class.rocksdb::InternalIteratorBase", %"struct.rocksdb::FragmentedRangeTombstoneIterator::RangeTombstoneStackStartComparator", %"struct.rocksdb::FragmentedRangeTombstoneIterator::RangeTombstoneStackEndComparator", ptr, ptr, %"class.std::shared_ptr", %"class.std::shared_ptr.55", ptr, i64, i64, ptr, %"class.__gnu_cxx::__normal_iterator", %"class.__gnu_cxx::__normal_iterator.58", %"class.__gnu_cxx::__normal_iterator", %"class.__gnu_cxx::__normal_iterator.58", %"class.rocksdb::InternalKey" }
%"class.rocksdb::InternalIteratorBase" = type { ptr, %"class.rocksdb::Cleanable" }
%"struct.rocksdb::FragmentedRangeTombstoneIterator::RangeTombstoneStackStartComparator" = type { ptr }
%"struct.rocksdb::FragmentedRangeTombstoneIterator::RangeTombstoneStackEndComparator" = type { ptr }
%"class.std::shared_ptr" = type { %"class.std::__shared_ptr" }
%"class.std::__shared_ptr" = type { ptr, %"class.std::__shared_count" }
%"class.std::__shared_count" = type { ptr }
%"class.std::shared_ptr.55" = type { %"class.std::__shared_ptr.56" }
%"class.std::__shared_ptr.56" = type { ptr, %"class.std::__shared_count" }
%"class.__gnu_cxx::__normal_iterator" = type { ptr }

; Function Attrs: mustprogress nounwind uwtable
define linkonce_odr void @_ZN9__gnu_cxx17__normal_iteratorIPKmSt6vectorImSaImEEEC2ERKS2_(ptr noundef nonnull align 8 dereferenceable(8) %this, ptr noundef nonnull align 8 dereferenceable(8) %__i) unnamed_addr #1 comdat align 2 {
entry:
  %this.addr = alloca ptr, align 8
  %__i.addr = alloca ptr, align 8
  store ptr %this, ptr %this.addr, align 8
  store ptr %__i, ptr %__i.addr, align 8
  %this1 = load ptr, ptr %this.addr, align 8
  %_M_current = getelementptr inbounds %"class.__gnu_cxx::__normal_iterator.58", ptr %this1, i32 0, i32 0
  %0 = load ptr, ptr %__i.addr, align 8
  %1 = load ptr, ptr %0, align 8
  store ptr %1, ptr %_M_current, align 8
  ret void
}

; Function Attrs: mustprogress nounwind uwtable
define linkonce_odr void @_ZN9__gnu_cxx17__normal_iteratorIPKN7rocksdb28FragmentedRangeTombstoneList19RangeTombstoneStackESt6vectorIS3_SaIS3_EEEC2ERKS5_(ptr noundef nonnull align 8 dereferenceable(8) %this, ptr noundef nonnull align 8 dereferenceable(8) %__i) unnamed_addr #1 comdat align 2 {
entry:
  %this.addr = alloca ptr, align 8
  %__i.addr = alloca ptr, align 8
  store ptr %this, ptr %this.addr, align 8
  store ptr %__i, ptr %__i.addr, align 8
  %this1 = load ptr, ptr %this.addr, align 8
  %_M_current = getelementptr inbounds %"class.__gnu_cxx::__normal_iterator", ptr %this1, i32 0, i32 0
  %0 = load ptr, ptr %__i.addr, align 8
  %1 = load ptr, ptr %0, align 8
  store ptr %1, ptr %_M_current, align 8
  ret void
}

; Function Attrs: mustprogress nounwind uwtable
define linkonce_odr ptr @_ZNKSt6vectorImSaImEE5beginEv(ptr noundef nonnull align 8 dereferenceable(24) %this) #1 comdat align 2 {
entry:
  %retval = alloca %"class.__gnu_cxx::__normal_iterator.58", align 8
  %this.addr = alloca ptr, align 8
  store ptr %this, ptr %this.addr, align 8
  %this1 = load ptr, ptr %this.addr, align 8
  %_M_impl = getelementptr inbounds %"struct.std::_Vector_base.3", ptr %this1, i32 0, i32 0
  %_M_start = getelementptr inbounds %"struct.std::_Vector_base<unsigned long, std::allocator<unsigned long>>::_Vector_impl_data", ptr %_M_impl, i32 0, i32 0
  call void @_ZN9__gnu_cxx17__normal_iteratorIPKmSt6vectorImSaImEEEC2ERKS2_(ptr noundef nonnull align 8 dereferenceable(8) %retval, ptr noundef nonnull align 8 dereferenceable(8) %_M_start) #15
  %coerce.dive = getelementptr inbounds %"class.__gnu_cxx::__normal_iterator.58", ptr %retval, i32 0, i32 0
  %0 = load ptr, ptr %coerce.dive, align 8
  ret ptr %0
}

; Function Attrs: mustprogress nounwind uwtable
define linkonce_odr ptr @_ZNKSt6vectorIN7rocksdb28FragmentedRangeTombstoneList19RangeTombstoneStackESaIS2_EE5beginEv(ptr noundef nonnull align 8 dereferenceable(24) %this) #1 comdat align 2 {
entry:
  %retval = alloca %"class.__gnu_cxx::__normal_iterator", align 8
  %this.addr = alloca ptr, align 8
  store ptr %this, ptr %this.addr, align 8
  %this1 = load ptr, ptr %this.addr, align 8
  %_M_impl = getelementptr inbounds %"struct.std::_Vector_base", ptr %this1, i32 0, i32 0
  %_M_start = getelementptr inbounds %"struct.std::_Vector_base<rocksdb::FragmentedRangeTombstoneList::RangeTombstoneStack, std::allocator<rocksdb::FragmentedRangeTombstoneList::RangeTombstoneStack>>::_Vector_impl_data", ptr %_M_impl, i32 0, i32 0
  call void @_ZN9__gnu_cxx17__normal_iteratorIPKN7rocksdb28FragmentedRangeTombstoneList19RangeTombstoneStackESt6vectorIS3_SaIS3_EEEC2ERKS5_(ptr noundef nonnull align 8 dereferenceable(8) %retval, ptr noundef nonnull align 8 dereferenceable(8) %_M_start) #15
  %coerce.dive = getelementptr inbounds %"class.__gnu_cxx::__normal_iterator", ptr %retval, i32 0, i32 0
  %0 = load ptr, ptr %coerce.dive, align 8
  ret ptr %0
}

; Function Attrs: mustprogress nounwind uwtable
define linkonce_odr ptr @_ZNK7rocksdb28FragmentedRangeTombstoneList9seq_beginEv(ptr noundef nonnull align 8 dereferenceable(232) %this) #1 comdat align 2 {
entry:
  %retval = alloca %"class.__gnu_cxx::__normal_iterator.58", align 8
  %this.addr = alloca ptr, align 8
  store ptr %this, ptr %this.addr, align 8
  %this1 = load ptr, ptr %this.addr, align 8
  %tombstone_seqs_ = getelementptr inbounds %"struct.rocksdb::FragmentedRangeTombstoneList", ptr %this1, i32 0, i32 1
  %call = call ptr @_ZNKSt6vectorImSaImEE5beginEv(ptr noundef nonnull align 8 dereferenceable(24) %tombstone_seqs_) #15
  %coerce.dive = getelementptr inbounds %"class.__gnu_cxx::__normal_iterator.58", ptr %retval, i32 0, i32 0
  store ptr %call, ptr %coerce.dive, align 8
  %coerce.dive2 = getelementptr inbounds %"class.__gnu_cxx::__normal_iterator.58", ptr %retval, i32 0, i32 0
  %0 = load ptr, ptr %coerce.dive2, align 8
  ret ptr %0
}

; Function Attrs: mustprogress nounwind uwtable
define linkonce_odr ptr @_ZNK7rocksdb28FragmentedRangeTombstoneList5beginEv(ptr noundef nonnull align 8 dereferenceable(232) %this) #1 comdat align 2 {
entry:
  %retval = alloca %"class.__gnu_cxx::__normal_iterator", align 8
  %this.addr = alloca ptr, align 8
  store ptr %this, ptr %this.addr, align 8
  %this1 = load ptr, ptr %this.addr, align 8
  %tombstones_ = getelementptr inbounds %"struct.rocksdb::FragmentedRangeTombstoneList", ptr %this1, i32 0, i32 0
  %call = call ptr @_ZNKSt6vectorIN7rocksdb28FragmentedRangeTombstoneList19RangeTombstoneStackESaIS2_EE5beginEv(ptr noundef nonnull align 8 dereferenceable(24) %tombstones_) #15
  %coerce.dive = getelementptr inbounds %"class.__gnu_cxx::__normal_iterator", ptr %retval, i32 0, i32 0
  store ptr %call, ptr %coerce.dive, align 8
  %coerce.dive2 = getelementptr inbounds %"class.__gnu_cxx::__normal_iterator", ptr %retval, i32 0, i32 0
  %0 = load ptr, ptr %coerce.dive2, align 8
  ret ptr %0
}

; Function Attrs: mustprogress uwtable
define void @_ZN7rocksdb32FragmentedRangeTombstoneIterator11SeekToFirstEv(ptr noundef nonnull align 8 dereferenceable(200) %this) unnamed_addr #0 align 2 {
entry:
  %this.addr = alloca ptr, align 8
  %ref.tmp = alloca %"class.__gnu_cxx::__normal_iterator", align 8
  %ref.tmp2 = alloca %"class.__gnu_cxx::__normal_iterator.58", align 8
  store ptr %this, ptr %this.addr, align 8
  %this1 = load ptr, ptr %this.addr, align 8
  %tombstones_ = getelementptr inbounds %"class.rocksdb::FragmentedRangeTombstoneIterator", ptr %this1, i32 0, i32 7
  %0 = load ptr, ptr %tombstones_, align 8
  %call = call ptr @_ZNK7rocksdb28FragmentedRangeTombstoneList5beginEv(ptr noundef nonnull align 8 dereferenceable(232) %0)
  %coerce.dive = getelementptr inbounds %"class.__gnu_cxx::__normal_iterator", ptr %ref.tmp, i32 0, i32 0
  store ptr %call, ptr %coerce.dive, align 8
  %pos_ = getelementptr inbounds %"class.rocksdb::FragmentedRangeTombstoneIterator", ptr %this1, i32 0, i32 11
  call void @llvm.memcpy.p0.p0.i64(ptr align 8 %pos_, ptr align 8 %ref.tmp, i64 8, i1 false)
  %tombstones_3 = getelementptr inbounds %"class.rocksdb::FragmentedRangeTombstoneIterator", ptr %this1, i32 0, i32 7
  %1 = load ptr, ptr %tombstones_3, align 8
  %call4 = call ptr @_ZNK7rocksdb28FragmentedRangeTombstoneList9seq_beginEv(ptr noundef nonnull align 8 dereferenceable(232) %1)
  %coerce.dive5 = getelementptr inbounds %"class.__gnu_cxx::__normal_iterator.58", ptr %ref.tmp2, i32 0, i32 0
  store ptr %call4, ptr %coerce.dive5, align 8
  %seq_pos_ = getelementptr inbounds %"class.rocksdb::FragmentedRangeTombstoneIterator", ptr %this1, i32 0, i32 12
  call void @llvm.memcpy.p0.p0.i64(ptr align 8 %seq_pos_, ptr align 8 %ref.tmp2, i64 8, i1 false)
  ret void
}