; Function Attrs: mustprogress nofree norecurse nosync nounwind willreturn memory(read, argmem: readwrite, inaccessiblemem: none) uwtable
define void @_ZN7rocksdb32FragmentedRangeTombstoneIterator11SeekToFirstEv(ptr nocapture noundef nonnull align 8 dereferenceable(200) %this) unnamed_addr #4 align 2 {
entry:
  %tombstones_ = getelementptr inbounds i8, ptr %this, i64 104
  %0 = load ptr, ptr %tombstones_, align 8
  %1 = load ptr, ptr %0, align 8
  %pos_ = getelementptr inbounds i8, ptr %this, i64 136
  store ptr %1, ptr %pos_, align 8
  %tombstone_seqs_.i = getelementptr inbounds i8, ptr %0, i64 24
  %2 = load ptr, ptr %tombstone_seqs_.i, align 8
  %seq_pos_ = getelementptr inbounds i8, ptr %this, i64 144
  store ptr %2, ptr %seq_pos_, align 8
  ret void
}